; Function Attrs: mustprogress nounwind uwtable
define dso_local void @_ZNK4llvm14CombinerHelper16replaceRegOpWithERNS_19MachineRegisterInfoERNS_14MachineOperandENS_8RegisterE(ptr nocapture noundef nonnull readonly align 8 dereferenceable(72) %0, ptr nocapture noundef nonnull readnone align 8 dereferenceable(512) %1, ptr noundef nonnull align 8 dereferenceable(32) %2, i32 %3) local_unnamed_addr #0 align 2 {
  %5 = getelementptr inbounds nuw i8, ptr %0, i64 16
  %6 = load ptr, ptr %5, align 8
  %7 = getelementptr inbounds nuw i8, ptr %2, i64 8
  %8 = load ptr, ptr %7, align 8
  %9 = load ptr, ptr %6, align 8
  %10 = getelementptr inbounds i8, ptr %9, i64 32
  %11 = load ptr, ptr %10, align 8
  tail call void %11(ptr noundef nonnull align 8 dereferenceable(72) %6, ptr noundef nonnull align 8 dereferenceable(70) %8) #27
  tail call void @_ZN4llvm14MachineOperand6setRegENS_8RegisterE(ptr noundef nonnull align 8 dereferenceable(32) %2, i32 %3) #27
  %12 = load ptr, ptr %5, align 8
  %13 = load ptr, ptr %7, align 8
  %14 = load ptr, ptr %12, align 8
  %15 = getelementptr inbounds i8, ptr %14, i64 40
  %16 = load ptr, ptr %15, align 8
  tail call void %16(ptr noundef nonnull align 8 dereferenceable(72) %12, ptr noundef nonnull align 8 dereferenceable(70) %13) #27
  ret void
}